Certificate:
    Data:
        Version: 3 (0x2)
        Serial Number: 268435667 (0x100000d3)
        Signature Algorithm: sha256WithRSAEncryption
        Issuer: C=DE, ST=Hessen, O=privacyidea, CN=CA001
        Validity
            Not Before: Mar 24 10:12:01 2021 GMT
            Not After : Mar 24 10:12:01 2022 GMT
        Subject: C=DE, ST=Hessen, O=privacyidea, CN=requester.localdomain
        Subject Public Key Info:
            Public Key Algorithm: rsaEncryption
                RSA Public-Key: (2048 bit)
                Modulus:
                    00:cd:be:14:4f:fa:ce:01:3f:42:22:1b:1d:9c:af:
                    dd:92:d2:7f:db:6c:b7:3e:39:43:43:6b:13:03:f1:
                    05:f4:07:74:bc:76:69:28:0b:af:19:8e:d7:fc:e3:
                    cd:c6:58:f2:ca:7f:08:6d:53:fc:07:02:44:24:c6:
                    b4:34:4c:8c:04:fe:33:0e:40:e2:20:ba:02:73:5a:
                    f7:f5:4f:63:6e:cc:c6:b6:df:54:1d:37:39:7d:51:
                    36:26:5f:bd:dc:3f:a8:8b:6b:a2:ae:b6:9d:d6:21:
                    e7:df:41:b8:7a:28:2a:68:48:ca:a8:2d:ed:e1:e9:
                    46:5e:5a:72:6d:b4:84:38:87:91:fd:94:11:0b:28:
                    84:c6:c2:2f:2a:fb:01:f9:36:7a:09:75:d1:33:88:
                    3c:73:41:5b:c8:bf:94:89:70:a1:f0:c0:b9:2e:50:
                    53:1e:b1:17:64:69:f4:2d:81:e0:a9:0d:0e:32:e9:
                    ba:55:8a:85:f1:1b:6f:49:79:b4:7f:88:c3:0d:3e:
                    54:88:9b:3d:1f:38:8c:04:f3:ee:6a:63:2b:f5:c6:
                    db:b4:83:aa:c4:78:41:3a:7d:4b:e1:c8:3e:71:ca:
                    1b:61:59:ea:c6:c4:ca:32:5e:c9:e9:bf:12:29:e6:
                    c6:c3:63:fe:a0:55:da:7a:f1:60:98:4d:26:ed:fa:
                    70:2d
                Exponent: 65537 (0x10001)
        X509v3 extensions:
            X509v3 Key Usage: 
                Digital Signature, Key Encipherment
            X509v3 Basic Constraints: 
                CA:FALSE
            Netscape Cert Type: 
                SSL Server
            Netscape Comment: 
                OpenSSL Generated Server Certificate
            X509v3 Subject Key Identifier: 
                53:3F:ED:5D:09:07:B3:65:7B:AB:45:C9:24:5B:09:77:80:0A:96:ED
            X509v3 Authority Key Identifier: 
                keyid:F4:A7:C0:CC:91:46:AF:64:F3:91:F2:27:F8:C8:B2:6F:8A:87:32:73
                DirName:/C=DE/ST=Hessen/O=privacyidea/CN=CA001
                serial:FB:C8:EB:AC:83:CD:12:07

            X509v3 Extended Key Usage: 
                TLS Web Server Authentication
    Signature Algorithm: sha256WithRSAEncryption
         a3:1f:6c:28:f0:09:13:ed:a2:31:ce:7a:4e:d6:3f:06:93:34:
         48:4c:4e:92:8d:b0:3d:60:97:84:93:a8:19:a1:db:53:df:29:
         d5:f4:2e:49:d5:3a:9e:d8:9a:71:10:eb:e4:5f:81:cd:3a:c7:
         5a:d1:f0:4d:a0:d7:ce:d9:9a:e7:21:43:66:c1:27:4a:65:7d:
         98:4d:61:bf:2a:b0:b0:1e:9d:4b:5b:ee:12:7f:25:05:e4:0b:
         81:35:64:fb:4f:1a:9d:f5:2a:30:71:8c:60:25:47:eb:b7:88:
         89:76:a1:f2:18:70:37:5c:34:62:88:30:c2:ca:0c:63:f3:c5:
         db:05:84:49:f0:0e:dc:55:ae:51:46:86:e9:b8:1c:79:e5:39:
         b1:9c:e4:1e:b2:52:63:2b:1b:c5:4f:c8:f3:ec:2f:67:65:56:
         2f:02:82:7b:69:0e:3e:22:35:33:f8:50:78:65:43:aa:07:8b:
         05:f5:df:65:55:f0:d0:19:06:99:43:b2:25:73:eb:4c:73:5c:
         36:32:0e:20:88:17:33:73:a3:58:e6:be:c5:f5:44:2a:cb:55:
         b0:6c:24:7d:a7:39:cb:74:9c:29:e4:b2:1a:20:a2:76:c9:ff:
         31:f3:c4:d2:82:ac:e2:b7:a6:a5:5a:a3:7d:e0:14:89:6a:4b:
         d0:e9:a4:c8
-----BEGIN CERTIFICATE-----
MIIEJjCCAw6gAwIBAgIEEAAA0zANBgkqhkiG9w0BAQsFADBEMQswCQYDVQQGEwJE
RTEPMA0GA1UECAwGSGVzc2VuMRQwEgYDVQQKDAtwcml2YWN5aWRlYTEOMAwGA1UE
AwwFQ0EwMDEwHhcNMjEwMzI0MTAxMjAxWhcNMjIwMzI0MTAxMjAxWjBUMQswCQYD
VQQGEwJERTEPMA0GA1UECAwGSGVzc2VuMRQwEgYDVQQKDAtwcml2YWN5aWRlYTEe
MBwGA1UEAwwVcmVxdWVzdGVyLmxvY2FsZG9tYWluMIIBIjANBgkqhkiG9w0BAQEF
AAOCAQ8AMIIBCgKCAQEAzb4UT/rOAT9CIhsdnK/dktJ/22y3PjlDQ2sTA/EF9Ad0
vHZpKAuvGY7X/OPNxljyyn8IbVP8BwJEJMa0NEyMBP4zDkDiILoCc1r39U9jbszG
tt9UHTc5fVE2Jl+93D+oi2uirrad1iHn30G4eigqaEjKqC3t4elGXlpybbSEOIeR
/ZQRCyiExsIvKvsB+TZ6CXXRM4g8c0FbyL+UiXCh8MC5LlBTHrEXZGn0LYHgqQ0O
Mum6VYqF8RtvSXm0f4jDDT5UiJs9HziMBPPuamMr9cbbtIOqxHhBOn1L4cg+ccob
YVnqxsTKMl7J6b8SKebGw2P+oFXaevFgmE0m7fpwLQIDAQABo4IBDjCCAQowCwYD
VR0PBAQDAgWgMAkGA1UdEwQCMAAwEQYJYIZIAYb4QgEBBAQDAgZAMDMGCWCGSAGG
+EIBDQQmFiRPcGVuU1NMIEdlbmVyYXRlZCBTZXJ2ZXIgQ2VydGlmaWNhdGUwHQYD
VR0OBBYEFFM/7V0JB7Nle6tFySRbCXeACpbtMHQGA1UdIwRtMGuAFPSnwMyRRq9k
85HyJ/jIsm+KhzJzoUikRjBEMQswCQYDVQQGEwJERTEPMA0GA1UECAwGSGVzc2Vu
MRQwEgYDVQQKDAtwcml2YWN5aWRlYTEOMAwGA1UEAwwFQ0EwMDGCCQD7yOusg80S
BzATBgNVHSUEDDAKBggrBgEFBQcDATANBgkqhkiG9w0BAQsFAAOCAQEAox9sKPAJ
E+2iMc56TtY/BpM0SExOko2wPWCXhJOoGaHbU98p1fQuSdU6ntiacRDr5F+BzTrH
WtHwTaDXztma5yFDZsEnSmV9mE1hvyqwsB6dS1vuEn8lBeQLgTVk+08anfUqMHGM
YCVH67eIiXah8hhwN1w0YogwwsoMY/PF2wWESfAO3FWuUUaG6bgceeU5sZzkHrJS
YysbxU/I8+wvZ2VWLwKCe2kOPiI1M/hQeGVDqgeLBfXfZVXw0BkGmUOyJXPrTHNc
NjIOIIgXM3OjWOa+xfVEKstVsGwkfac5y3ScKeSyGiCidsn/MfPE0oKs4rempVqj
feAUiWpL0OmkyA==
-----END CERTIFICATE-----
