Certificate:
    Data:
        Version: 3 (0x2)
        Serial Number: 268435668 (0x100000d4)
        Signature Algorithm: sha256WithRSAEncryption
        Issuer: C=DE, ST=Hessen, O=privacyidea, CN=CA001
        Validity
            Not Before: Mar 24 10:12:01 2021 GMT
            Not After : Mar 24 10:12:01 2022 GMT
        Subject: CN=cn=cornelius
        Subject Public Key Info:
            Public Key Algorithm: rsaEncryption
                RSA Public-Key: (2048 bit)
                Modulus:
                    00:ce:a4:39:30:25:73:e4:9d:e6:37:3b:85:59:83:
                    ef:a3:6e:f9:83:b9:f7:48:b0:0b:d5:e8:05:40:61:
                    cd:c5:5a:bc:11:2f:5b:4e:d0:4f:b8:d0:e8:7f:05:
                    ab:ad:24:0b:90:d4:3f:60:ec:15:b6:4e:be:8e:d9:
                    26:ab:f2:2f:7f:35:c2:a6:a1:bc:52:3a:d9:88:fb:
                    b3:fa:71:20:b9:51:0e:f8:af:0d:16:be:bd:5d:b9:
                    ab:30:d5:ac:6b:3c:bc:ee:28:4a:4f:6f:d4:09:15:
                    f7:98:af:77:db:36:15:2e:1e:ee:0f:d0:d9:60:ad:
                    db:b9:c4:3f:c6:25:32:f9:e3:e9:50:b8:ec:84:a0:
                    c4:d2:9c:fd:ce:25:80:85:7e:3a:ad:4c:a7:40:1b:
                    0a:58:18:9f:c2:5e:36:e1:d1:44:e9:46:b6:dc:b4:
                    28:a2:ec:ed:02:f7:25:79:e1:86:8e:69:67:52:ee:
                    82:21:b7:84:2d:cc:e7:a8:39:57:7d:a3:1e:e9:50:
                    63:77:29:ab:e4:a5:ff:dc:ee:4c:4b:5e:08:2b:62:
                    08:2d:75:b8:26:6c:93:eb:f5:45:ea:cd:83:58:53:
                    15:46:e6:6b:43:c1:2f:d9:88:4b:3d:d5:fd:0c:ff:
                    51:52:ed:54:fb:27:2d:59:ef:4c:50:ce:71:cd:eb:
                    5a:99
                Exponent: 65537 (0x10001)
        X509v3 extensions:
            X509v3 Key Usage: 
                Digital Signature, Key Encipherment
            X509v3 Basic Constraints: 
                CA:FALSE
            Netscape Cert Type: 
                SSL Server
            Netscape Comment: 
                OpenSSL Generated Server Certificate
            X509v3 Subject Key Identifier: 
                0E:D5:BA:4E:7D:92:57:15:FD:61:4E:34:5B:E9:62:D0:20:1C:7D:08
            X509v3 Authority Key Identifier: 
                keyid:F4:A7:C0:CC:91:46:AF:64:F3:91:F2:27:F8:C8:B2:6F:8A:87:32:73
                DirName:/C=DE/ST=Hessen/O=privacyidea/CN=CA001
                serial:FB:C8:EB:AC:83:CD:12:07

            X509v3 Extended Key Usage: 
                TLS Web Server Authentication
    Signature Algorithm: sha256WithRSAEncryption
         91:7c:1c:7c:28:8d:9f:6c:4c:08:8b:90:40:b2:90:b6:59:55:
         eb:85:18:07:b4:dd:22:6d:41:8c:18:cf:0e:0f:4f:b4:95:51:
         8b:cf:22:1a:68:da:75:82:78:a2:01:a2:b4:b3:9b:ac:62:c9:
         d7:7a:eb:b6:eb:19:80:d2:d3:ba:8c:5e:39:07:5e:13:11:db:
         89:1f:aa:72:43:c5:c7:05:24:a3:a9:2c:af:9b:0b:cd:01:be:
         69:7a:9c:db:16:57:3b:82:40:8b:0d:d5:5e:97:f0:76:67:df:
         03:e8:84:ad:b6:4e:e1:66:55:64:b6:13:ce:d6:45:c4:94:bf:
         1a:b5:84:b7:07:8b:11:7d:63:ff:04:54:04:38:b7:6b:dc:ec:
         da:0b:f6:e8:51:a8:ff:87:22:66:dc:b0:e6:87:97:a8:e8:ef:
         08:22:61:e1:91:fa:e5:79:08:e9:76:57:15:b9:84:cc:55:c1:
         75:1b:57:4f:b3:b9:a7:ea:c3:05:e1:41:52:d2:6f:91:cb:21:
         d7:3e:a5:5a:bc:d6:61:f2:7c:04:38:06:b5:06:81:11:77:67:
         01:7c:99:5d:04:4b:42:bd:53:af:01:3c:49:f1:7e:a2:1b:3c:
         9f:5e:8f:b7:fb:cb:3a:19:32:12:61:69:a4:28:86:49:21:f9:
         7e:25:99:83
-----BEGIN CERTIFICATE-----
MIID6TCCAtGgAwIBAgIEEAAA1DANBgkqhkiG9w0BAQsFADBEMQswCQYDVQQGEwJE
RTEPMA0GA1UECAwGSGVzc2VuMRQwEgYDVQQKDAtwcml2YWN5aWRlYTEOMAwGA1UE
AwwFQ0EwMDEwHhcNMjEwMzI0MTAxMjAxWhcNMjIwMzI0MTAxMjAxWjAXMRUwEwYD
VQQDDAxjbj1jb3JuZWxpdXMwggEiMA0GCSqGSIb3DQEBAQUAA4IBDwAwggEKAoIB
AQDOpDkwJXPkneY3O4VZg++jbvmDufdIsAvV6AVAYc3FWrwRL1tO0E+40Oh/Baut
JAuQ1D9g7BW2Tr6O2Sar8i9/NcKmobxSOtmI+7P6cSC5UQ74rw0Wvr1duasw1axr
PLzuKEpPb9QJFfeYr3fbNhUuHu4P0Nlgrdu5xD/GJTL54+lQuOyEoMTSnP3OJYCF
fjqtTKdAGwpYGJ/CXjbh0UTpRrbctCii7O0C9yV54YaOaWdS7oIht4QtzOeoOVd9
ox7pUGN3Kavkpf/c7kxLXggrYggtdbgmbJPr9UXqzYNYUxVG5mtDwS/ZiEs91f0M
/1FS7VT7Jy1Z70xQznHN61qZAgMBAAGjggEOMIIBCjALBgNVHQ8EBAMCBaAwCQYD
VR0TBAIwADARBglghkgBhvhCAQEEBAMCBkAwMwYJYIZIAYb4QgENBCYWJE9wZW5T
U0wgR2VuZXJhdGVkIFNlcnZlciBDZXJ0aWZpY2F0ZTAdBgNVHQ4EFgQUDtW6Tn2S
VxX9YU40W+li0CAcfQgwdAYDVR0jBG0wa4AU9KfAzJFGr2TzkfIn+Miyb4qHMnOh
SKRGMEQxCzAJBgNVBAYTAkRFMQ8wDQYDVQQIDAZIZXNzZW4xFDASBgNVBAoMC3By
aXZhY3lpZGVhMQ4wDAYDVQQDDAVDQTAwMYIJAPvI66yDzRIHMBMGA1UdJQQMMAoG
CCsGAQUFBwMBMA0GCSqGSIb3DQEBCwUAA4IBAQCRfBx8KI2fbEwIi5BAspC2WVXr
hRgHtN0ibUGMGM8OD0+0lVGLzyIaaNp1gniiAaK0s5usYsnXeuu26xmA0tO6jF45
B14TEduJH6pyQ8XHBSSjqSyvmwvNAb5pepzbFlc7gkCLDdVel/B2Z98D6ISttk7h
ZlVkthPO1kXElL8atYS3B4sRfWP/BFQEOLdr3OzaC/boUaj/hyJm3LDmh5eo6O8I
ImHhkfrleQjpdlcVuYTMVcF1G1dPs7mn6sMF4UFS0m+RyyHXPqVavNZh8nwEOAa1
BoERd2cBfJldBEtCvVOvATxJ8X6iGzyfXo+3+8s6GTISYWmkKIZJIfl+JZmD
-----END CERTIFICATE-----
