Certificate:
    Data:
        Version: 3 (0x2)
        Serial Number: 268435669 (0x100000d5)
        Signature Algorithm: sha256WithRSAEncryption
        Issuer: C=DE, ST=Hessen, O=privacyidea, CN=CA001
        Validity
            Not Before: Mar 24 10:12:01 2021 GMT
            Not After : Mar 24 10:12:01 2022 GMT
        Subject: OU=realm1, CN=cornelius/emailAddress=user@localhost.localdomain
        Subject Public Key Info:
            Public Key Algorithm: rsaEncryption
                RSA Public-Key: (2048 bit)
                Modulus:
                    00:ea:ac:8f:69:74:0e:8f:44:b9:68:4b:9f:d0:a5:
                    c3:41:ea:71:e1:76:25:d2:1f:eb:54:cb:95:3a:33:
                    14:7a:e0:77:c2:a6:3a:78:9b:c4:e7:b8:5f:20:97:
                    20:0d:bb:48:03:17:1d:76:19:6b:10:3a:e7:9e:ed:
                    6a:db:a5:12:49:a2:a1:55:58:69:c7:4f:ca:4f:cc:
                    11:df:85:18:34:4f:1d:b9:58:8f:1c:5c:13:00:e4:
                    a5:c3:7a:ab:12:4c:dd:dc:c1:5c:3c:e3:4c:17:1a:
                    04:3b:79:71:5a:23:4d:e3:0a:11:b7:3d:fa:3b:47:
                    2d:02:7b:6b:8d:9a:43:f7:f3:21:65:fd:b3:d9:79:
                    3a:4e:77:50:b3:b5:88:93:40:2f:23:6a:85:e3:7b:
                    63:f0:3a:ba:f1:6d:a5:cb:44:d0:c6:d8:e1:36:fa:
                    0e:5b:59:de:1d:8f:9a:11:0c:36:8e:22:80:08:fd:
                    0b:cd:a0:2e:8d:38:de:9b:6a:1b:ff:26:96:ae:9b:
                    8f:73:d6:5f:89:b8:58:fb:0c:fd:26:4e:da:bd:bf:
                    e9:9f:c6:85:c6:73:1c:f7:f4:5d:53:31:72:a2:6b:
                    dc:6b:eb:3d:8b:5c:ba:51:31:91:61:ae:9c:d5:e1:
                    b6:0d:4d:f4:60:6d:25:6a:44:6d:7f:97:b0:41:27:
                    eb:61
                Exponent: 65537 (0x10001)
        X509v3 extensions:
            X509v3 Key Usage: 
                Digital Signature, Key Encipherment
            X509v3 Basic Constraints: 
                CA:FALSE
            Netscape Cert Type: 
                SSL Server
            Netscape Comment: 
                OpenSSL Generated Server Certificate
            X509v3 Subject Key Identifier: 
                F5:23:E3:14:5B:69:08:1B:92:6C:A7:5C:27:34:75:E2:E6:35:3B:7A
            X509v3 Authority Key Identifier: 
                keyid:F4:A7:C0:CC:91:46:AF:64:F3:91:F2:27:F8:C8:B2:6F:8A:87:32:73
                DirName:/C=DE/ST=Hessen/O=privacyidea/CN=CA001
                serial:FB:C8:EB:AC:83:CD:12:07

            X509v3 Extended Key Usage: 
                TLS Web Server Authentication
    Signature Algorithm: sha256WithRSAEncryption
         98:1f:f9:3f:04:82:2f:a3:0b:45:97:06:db:91:f7:55:bb:90:
         34:3c:61:d8:56:d5:09:6e:42:2e:3c:6f:74:1d:bd:6e:3c:44:
         1b:1d:ae:33:74:a6:16:5b:7f:e3:72:cc:b4:37:29:2a:27:55:
         91:8c:f4:72:92:c6:d5:c9:a1:79:4b:6a:1e:a4:8a:9c:2b:7d:
         ac:bb:b7:d2:01:bb:75:c8:27:df:04:31:33:9c:d2:89:2b:8a:
         51:0a:17:09:53:a7:6a:78:e7:7a:b7:e9:12:32:93:f7:97:6d:
         48:cd:f3:04:16:0e:92:0c:04:39:21:6f:b7:5d:eb:05:80:69:
         04:c9:37:fb:f0:9e:aa:9e:8d:c9:e7:38:82:7d:ff:ae:1a:35:
         0a:7d:e1:8c:ec:f0:c8:f3:8a:7e:1e:ab:cd:c0:ea:98:c2:9f:
         1d:0c:c3:c2:0f:2d:96:de:74:51:4e:1e:7e:65:2d:e1:a2:2d:
         d5:28:6d:81:8c:78:e7:b0:31:26:a7:98:42:41:9a:56:3f:e4:
         67:6a:c1:81:90:7a:8b:8a:24:d7:f4:83:ad:22:1e:3c:fd:f9:
         16:41:f8:b6:e2:fe:9c:87:49:cf:02:ce:c4:d5:d0:f7:a1:8a:
         60:c3:fb:d0:cd:b2:e3:5d:3b:63:b5:7c:27:75:cc:50:a1:6b:
         37:95:9e:d9
-----BEGIN CERTIFICATE-----
MIIEIjCCAwqgAwIBAgIEEAAA1TANBgkqhkiG9w0BAQsFADBEMQswCQYDVQQGEwJE
RTEPMA0GA1UECAwGSGVzc2VuMRQwEgYDVQQKDAtwcml2YWN5aWRlYTEOMAwGA1UE
AwwFQ0EwMDEwHhcNMjEwMzI0MTAxMjAxWhcNMjIwMzI0MTAxMjAxWjBQMQ8wDQYD
VQQLDAZyZWFsbTExEjAQBgNVBAMMCWNvcm5lbGl1czEpMCcGCSqGSIb3DQEJARYa
dXNlckBsb2NhbGhvc3QubG9jYWxkb21haW4wggEiMA0GCSqGSIb3DQEBAQUAA4IB
DwAwggEKAoIBAQDqrI9pdA6PRLloS5/QpcNB6nHhdiXSH+tUy5U6MxR64HfCpjp4
m8TnuF8glyANu0gDFx12GWsQOuee7WrbpRJJoqFVWGnHT8pPzBHfhRg0Tx25WI8c
XBMA5KXDeqsSTN3cwVw840wXGgQ7eXFaI03jChG3Pfo7Ry0Ce2uNmkP38yFl/bPZ
eTpOd1CztYiTQC8jaoXje2PwOrrxbaXLRNDG2OE2+g5bWd4dj5oRDDaOIoAI/QvN
oC6NON6bahv/Jpaum49z1l+JuFj7DP0mTtq9v+mfxoXGcxz39F1TMXKia9xr6z2L
XLpRMZFhrpzV4bYNTfRgbSVqRG1/l7BBJ+thAgMBAAGjggEOMIIBCjALBgNVHQ8E
BAMCBaAwCQYDVR0TBAIwADARBglghkgBhvhCAQEEBAMCBkAwMwYJYIZIAYb4QgEN
BCYWJE9wZW5TU0wgR2VuZXJhdGVkIFNlcnZlciBDZXJ0aWZpY2F0ZTAdBgNVHQ4E
FgQU9SPjFFtpCBuSbKdcJzR14uY1O3owdAYDVR0jBG0wa4AU9KfAzJFGr2TzkfIn
+Miyb4qHMnOhSKRGMEQxCzAJBgNVBAYTAkRFMQ8wDQYDVQQIDAZIZXNzZW4xFDAS
BgNVBAoMC3ByaXZhY3lpZGVhMQ4wDAYDVQQDDAVDQTAwMYIJAPvI66yDzRIHMBMG
A1UdJQQMMAoGCCsGAQUFBwMBMA0GCSqGSIb3DQEBCwUAA4IBAQCYH/k/BIIvowtF
lwbbkfdVu5A0PGHYVtUJbkIuPG90Hb1uPEQbHa4zdKYWW3/jcsy0NykqJ1WRjPRy
ksbVyaF5S2oepIqcK32su7fSAbt1yCffBDEznNKJK4pRChcJU6dqeOd6t+kSMpP3
l21IzfMEFg6SDAQ5IW+3XesFgGkEyTf78J6qno3J5ziCff+uGjUKfeGM7PDI84p+
HqvNwOqYwp8dDMPCDy2W3nRRTh5+ZS3hoi3VKG2BjHjnsDEmp5hCQZpWP+RnasGB
kHqLiiTX9IOtIh48/fkWQfi24v6ch0nPAs7E1dD3oYpgw/vQzbLjXTtjtXwndcxQ
oWs3lZ7Z
-----END CERTIFICATE-----
