Certificate:
    Data:
        Version: 3 (0x2)
        Serial Number: 268435670 (0x100000d6)
        Signature Algorithm: sha256WithRSAEncryption
        Issuer: C=DE, ST=Hessen, O=privacyidea, CN=CA001
        Validity
            Not Before: Mar 24 10:13:44 2021 GMT
            Not After : Mar 24 10:13:44 2022 GMT
        Subject: CN=selfservice,CN=user,O=realm1/emailAddress=meine
        Subject Public Key Info:
            Public Key Algorithm: rsaEncryption
                RSA Public-Key: (2048 bit)
                Modulus:
                    00:cf:3c:d4:33:0e:12:c4:e6:da:cd:b6:56:a1:1c:
                    26:bb:26:1c:8a:4a:73:a8:58:8a:b6:1e:b3:8b:99:
                    d2:1d:07:c2:92:89:79:c0:69:d8:c8:df:28:61:98:
                    1e:b3:fe:ae:2b:bd:78:a9:f7:6e:47:dc:a3:a0:16:
                    8c:85:02:c1:4e:92:fd:72:6e:f0:c8:03:29:9b:b8:
                    00:6e:c0:83:95:c8:34:20:36:9c:b3:e5:e4:e6:76:
                    73:a3:1a:ad:40:96:e0:53:54:00:ec:76:79:9a:c6:
                    0d:7e:b6:bd:29:ec:83:f3:cb:89:a4:cb:6c:00:ba:
                    0c:c5:78:0f:ff:69:b8:94:f4:04:70:43:3f:d8:9e:
                    d7:a7:fb:5d:ce:75:8e:da:e7:c4:07:b1:9d:de:6f:
                    88:4b:b6:4d:9a:cf:f9:bc:fa:9f:cd:32:6d:f6:3a:
                    0b:0d:23:42:78:ec:97:42:bf:0e:4d:60:56:e1:d3:
                    02:f2:19:cb:84:57:90:e5:70:a1:a2:83:35:86:e2:
                    da:86:9f:f9:8a:c4:79:b3:52:28:da:cb:bb:34:ca:
                    d3:da:91:4a:cf:8d:76:a2:b2:6b:9b:f9:96:fd:09:
                    2a:da:11:23:4d:f0:cb:d6:b2:b1:0e:12:6c:9a:19:
                    65:98:87:ca:e4:ee:24:ce:44:ac:90:8f:9d:1b:c5:
                    2a:9d
                Exponent: 65537 (0x10001)
        X509v3 extensions:
            X509v3 Key Usage: 
                Digital Signature, Key Encipherment
            X509v3 Basic Constraints: 
                CA:FALSE
            Netscape Cert Type: 
                SSL Server
            Netscape Comment: 
                OpenSSL Generated Server Certificate
            X509v3 Subject Key Identifier: 
                4D:07:90:AD:FF:1D:0D:E7:1A:DD:D6:2E:FA:BA:34:CB:AA:1F:24:C6
            X509v3 Authority Key Identifier: 
                keyid:F4:A7:C0:CC:91:46:AF:64:F3:91:F2:27:F8:C8:B2:6F:8A:87:32:73
                DirName:/C=DE/ST=Hessen/O=privacyidea/CN=CA001
                serial:FB:C8:EB:AC:83:CD:12:07

            X509v3 Extended Key Usage: 
                TLS Web Server Authentication
    Signature Algorithm: sha256WithRSAEncryption
         17:81:01:2d:11:8f:0f:ab:f9:cc:51:9a:76:be:a0:bd:87:14:
         ad:11:e3:3e:2c:77:2e:65:2e:1d:29:09:48:2d:93:bf:bb:6b:
         ee:8c:72:ce:cd:a5:3c:e6:51:d1:22:ab:26:2b:19:d7:d6:54:
         32:f1:78:1c:9e:26:0c:97:dd:2a:c4:9e:df:2a:b7:7a:aa:1a:
         16:b9:8c:05:de:97:87:78:54:e1:26:96:42:67:68:8c:72:6a:
         7d:51:65:85:61:3c:80:7c:d7:e8:04:48:9e:a5:3c:c3:3c:20:
         5b:d6:4f:bc:7d:c2:b5:49:e9:33:c8:b1:47:9a:0e:31:5a:03:
         0c:12:3b:64:dd:16:dc:37:78:4a:1b:22:ab:37:fd:f3:1f:eb:
         d5:c8:b7:f2:7b:36:3d:0a:f2:f6:67:63:68:80:f8:dd:a2:d1:
         af:04:f9:f6:db:3c:33:02:21:f3:51:57:93:11:11:ad:36:5c:
         a9:ce:57:2e:aa:d8:05:e8:e7:b7:f9:e2:34:33:09:1a:82:49:
         19:53:94:77:f2:d8:4b:a0:ef:15:ef:4c:a7:32:e7:bd:af:3c:
         77:71:5d:79:c1:60:21:b8:fc:3e:e1:54:f4:e2:f6:52:3d:04:
         20:dd:ed:9f:fa:b9:9b:6f:6c:da:42:e8:ff:3e:32:07:ed:0f:
         3a:de:b4:44
-----BEGIN CERTIFICATE-----
MIIEDzCCAvegAwIBAgIEEAAA1jANBgkqhkiG9w0BAQsFADBEMQswCQYDVQQGEwJE
RTEPMA0GA1UECAwGSGVzc2VuMRQwEgYDVQQKDAtwcml2YWN5aWRlYTEOMAwGA1UE
AwwFQ0EwMDEwHhcNMjEwMzI0MTAxMzQ0WhcNMjIwMzI0MTAxMzQ0WjA9MSUwIwYD
VQQDDBxzZWxmc2VydmljZSxDTj11c2VyLE89cmVhbG0xMRQwEgYJKoZIhvcNAQkB
FgVtZWluZTCCASIwDQYJKoZIhvcNAQEBBQADggEPADCCAQoCggEBAM881DMOEsTm
2s22VqEcJrsmHIpKc6hYirYes4uZ0h0HwpKJecBp2MjfKGGYHrP+riu9eKn3bkfc
o6AWjIUCwU6S/XJu8MgDKZu4AG7Ag5XINCA2nLPl5OZ2c6MarUCW4FNUAOx2eZrG
DX62vSnsg/PLiaTLbAC6DMV4D/9puJT0BHBDP9ie16f7Xc51jtrnxAexnd5viEu2
TZrP+bz6n80ybfY6Cw0jQnjsl0K/Dk1gVuHTAvIZy4RXkOVwoaKDNYbi2oaf+YrE
ebNSKNrLuzTK09qRSs+NdqKya5v5lv0JKtoRI03wy9aysQ4SbJoZZZiHyuTuJM5E
rJCPnRvFKp0CAwEAAaOCAQ4wggEKMAsGA1UdDwQEAwIFoDAJBgNVHRMEAjAAMBEG
CWCGSAGG+EIBAQQEAwIGQDAzBglghkgBhvhCAQ0EJhYkT3BlblNTTCBHZW5lcmF0
ZWQgU2VydmVyIENlcnRpZmljYXRlMB0GA1UdDgQWBBRNB5Ct/x0N5xrd1i76ujTL
qh8kxjB0BgNVHSMEbTBrgBT0p8DMkUavZPOR8if4yLJviocyc6FIpEYwRDELMAkG
A1UEBhMCREUxDzANBgNVBAgMBkhlc3NlbjEUMBIGA1UECgwLcHJpdmFjeWlkZWEx
DjAMBgNVBAMMBUNBMDAxggkA+8jrrIPNEgcwEwYDVR0lBAwwCgYIKwYBBQUHAwEw
DQYJKoZIhvcNAQELBQADggEBABeBAS0Rjw+r+cxRmna+oL2HFK0R4z4sdy5lLh0p
CUgtk7+7a+6Mcs7NpTzmUdEiqyYrGdfWVDLxeByeJgyX3SrEnt8qt3qqGha5jAXe
l4d4VOEmlkJnaIxyan1RZYVhPIB81+gESJ6lPMM8IFvWT7x9wrVJ6TPIsUeaDjFa
AwwSO2TdFtw3eEobIqs3/fMf69XIt/J7Nj0K8vZnY2iA+N2i0a8E+fbbPDMCIfNR
V5MREa02XKnOVy6q2AXo57f54jQzCRqCSRlTlHfy2Eug7xXvTKcy572vPHdxXXnB
YCG4/D7hVPTi9lI9BCDd7Z/6uZtvbNpC6P8+MgftDzretEQ=
-----END CERTIFICATE-----
